target datalayout = "e-m:e-p270:32:32-p271:32:32-p272:64:64-i64:64-i128:128-f80:128-n8:16:32:64-S128"
target triple = "x86_64-pc-linux-gnu"

@_ZL8tabCount = internal global i32 3, align 4
@.str.19 = private unnamed_addr constant [5 x i8] c"    \00", align 1

; Function Attrs: mustprogress uwtable
define internal void @_ZL10write_tabsP11_FileStream(ptr noundef %0) #0 {
  %2 = alloca ptr, align 8
  %3 = alloca i32, align 4
  store ptr %0, ptr %2, align 8, !tbaa !27
  call void @llvm.lifetime.start.p0(i64 4, ptr %3) #10
  store i32 0, ptr %3, align 4, !tbaa !23
  br label %4

4:                                                ; preds = %11, %1
  %5 = load i32, ptr %3, align 4, !tbaa !23
  %6 = load i32, ptr @_ZL8tabCount, align 4, !tbaa !23
  %7 = icmp sle i32 %5, %6
  br i1 %7, label %8, label %14

8:                                                ; preds = %4
  %9 = load ptr, ptr %2, align 8, !tbaa !27
  %10 = call i32 @T_FileStream_write(ptr noundef %9, ptr noundef @.str.19, i32 noundef 4)
  br label %11

11:                                               ; preds = %8
  %12 = load i32, ptr %3, align 4, !tbaa !23
  %13 = add nsw i32 %12, 1
  store i32 %13, ptr %3, align 4, !tbaa !23
  br label %4, !llvm.loop !77

14:                                               ; preds = %4
  call void @llvm.lifetime.end.p0(i64 4, ptr %3) #10
  ret void
}