; Function Attrs: mustprogress uwtable
define internal fastcc void @_ZL10write_tabsP11_FileStream(ptr noundef %0) unnamed_addr #0 {
  %2 = load i32, ptr @_ZL8tabCount, align 4, !tbaa !29
  %.not2 = icmp slt i32 %2, 0
  br i1 %.not2, label %._crit_edge, label %.lr.ph

.lr.ph:                                           ; preds = %1, %.lr.ph
  %.03 = phi i32 [ %4, %.lr.ph ], [ 0, %1 ]
  %3 = tail call i32 @T_FileStream_write(ptr noundef %0, ptr noundef nonnull @.str.19, i32 noundef 4)
  %4 = add nuw nsw i32 %.03, 1
  %5 = load i32, ptr @_ZL8tabCount, align 4, !tbaa !29
  %.not.not = icmp slt i32 %.03, %5
  br i1 %.not.not, label %.lr.ph, label %._crit_edge, !llvm.loop !30

._crit_edge:                                      ; preds = %.lr.ph, %1
  ret void
}